target datalayout = "e-m:e-p270:32:32-p271:32:32-p272:64:64-i64:64-i128:128-f80:128-n8:16:32:64-S128"
target triple = "x86_64-pc-linux-gnu"

%class.fixed_bit_vector = type { [1 x i32] }
%class.fixed_bit_vector_manager = type <{ %class.small_object_allocator, i32, i32, i32, i32, %class.fixed_bit_vector, [4 x i8] }>
%class.small_object_allocator = type { [32 x ptr], [32 x ptr], i64 }

; Function Attrs: mustprogress nounwind uwtable
define linkonce_odr hidden noundef i32 @_ZNK24fixed_bit_vector_manager9num_bytesEv(ptr noundef nonnull align 8 dereferenceable(540) %0) #6 comdat align 2 {
  %2 = alloca ptr, align 8
  store ptr %0, ptr %2, align 8, !tbaa !18
  %3 = load ptr, ptr %2, align 8
  %4 = getelementptr inbounds nuw %class.fixed_bit_vector_manager, ptr %3, i32 0, i32 2
  %5 = load i32, ptr %4, align 4, !tbaa !26
  ret i32 %5
}

; Function Attrs: mustprogress uwtable
define hidden noundef nonnull align 4 dereferenceable(4) ptr @_ZNK24fixed_bit_vector_manager5fill1ER16fixed_bit_vector(ptr noundef nonnull align 8 dereferenceable(540) %0, ptr noundef nonnull align 4 dereferenceable(4) %1) #4 align 2 {
  %3 = alloca ptr, align 8
  %4 = alloca ptr, align 8
  store ptr %0, ptr %3, align 8, !tbaa !18
  store ptr %1, ptr %4, align 8, !tbaa !3
  %5 = load ptr, ptr %3, align 8
  %6 = load ptr, ptr %4, align 8, !tbaa !3
  %7 = getelementptr inbounds nuw %class.fixed_bit_vector, ptr %6, i32 0, i32 0
  %8 = getelementptr inbounds [1 x i32], ptr %7, i64 0, i64 0
  %9 = call noundef i32 @_ZNK24fixed_bit_vector_manager9num_bytesEv(ptr noundef nonnull align 8 dereferenceable(540) %5)
  %10 = zext i32 %9 to i64
  call void @llvm.memset.p0.i64(ptr align 4 %8, i8 -1, i64 %10, i1 false)
  %11 = load ptr, ptr %4, align 8, !tbaa !3
  ret ptr %11
}

; Function Attrs: mustprogress uwtable
define hidden noundef ptr @_ZN24fixed_bit_vector_manager8allocateEv(ptr noundef nonnull align 8 dereferenceable(540) %0) #4 align 2 {
  %2 = alloca ptr, align 8
  %3 = alloca ptr, align 8
  store ptr %0, ptr %3, align 8, !tbaa !18
  %4 = load ptr, ptr %3, align 8
  %5 = getelementptr inbounds nuw %class.fixed_bit_vector_manager, ptr %4, i32 0, i32 2
  %6 = load i32, ptr %5, align 4, !tbaa !26
  %7 = icmp eq i32 %6, 0
  br i1 %7, label %8, label %10

8:                                                ; preds = %1
  %9 = getelementptr inbounds nuw %class.fixed_bit_vector_manager, ptr %4, i32 0, i32 5
  store ptr %9, ptr %2, align 8
  br label %16

10:                                               ; preds = %1
  %11 = getelementptr inbounds nuw %class.fixed_bit_vector_manager, ptr %4, i32 0, i32 0
  %12 = getelementptr inbounds nuw %class.fixed_bit_vector_manager, ptr %4, i32 0, i32 2
  %13 = load i32, ptr %12, align 4, !tbaa !26
  %14 = zext i32 %13 to i64
  %15 = call noundef ptr @_ZN22small_object_allocator8allocateEm(ptr noundef nonnull align 8 dereferenceable(520) %11, i64 noundef %14)
  store ptr %15, ptr %2, align 8
  br label %16

16:                                               ; preds = %10, %8
  %17 = load ptr, ptr %2, align 8
  ret ptr %17
}

; Function Attrs: mustprogress uwtable
define hidden noundef ptr @_ZN24fixed_bit_vector_manager9allocate1Ev(ptr noundef nonnull align 8 dereferenceable(540) %0) #4 align 2 {
  %2 = alloca ptr, align 8
  %3 = alloca ptr, align 8
  store ptr %0, ptr %2, align 8, !tbaa !18
  %4 = load ptr, ptr %2, align 8
  call void @llvm.lifetime.start.p0(i64 8, ptr %3) #3
  %5 = call noundef ptr @_ZN24fixed_bit_vector_manager8allocateEv(ptr noundef nonnull align 8 dereferenceable(540) %4)
  store ptr %5, ptr %3, align 8, !tbaa !3
  %6 = load ptr, ptr %3, align 8, !tbaa !3
  %7 = call noundef nonnull align 4 dereferenceable(4) ptr @_ZNK24fixed_bit_vector_manager5fill1ER16fixed_bit_vector(ptr noundef nonnull align 8 dereferenceable(540) %4, ptr noundef nonnull align 4 dereferenceable(4) %6)
  %8 = load ptr, ptr %3, align 8, !tbaa !3
  call void @llvm.lifetime.end.p0(i64 8, ptr %3) #3
  ret ptr %8
}